target datalayout = "e-m:e-p270:32:32-p271:32:32-p272:64:64-i64:64-i128:128-f80:128-n8:16:32:64-S128"
target triple = "x86_64-pc-linux-gnu"

%struct.sockaddr_in = type { i16, i16, %struct.in_addr, [8 x i8] }
%struct.in_addr = type { i32 }

@stderr = external global ptr, align 8
@.str.53 = private unnamed_addr constant [36 x i8] c"ERROR: failed to create the socket\0A\00", align 1
@.str.54 = private unnamed_addr constant [32 x i8] c"setsockopt SO_REUSEADDR failed\0A\00", align 1
@.str.55 = private unnamed_addr constant [23 x i8] c"ERROR: failed to bind\0A\00", align 1
@.str.56 = private unnamed_addr constant [25 x i8] c"ERROR: failed to listen\0A\00", align 1

; Function Attrs: inlinehint nounwind uwtable
define internal zeroext i16 @__bswap_16(i16 noundef zeroext %0) #3 {
  %2 = alloca i16, align 2
  store i16 %0, ptr %2, align 2, !tbaa !97
  %3 = load i16, ptr %2, align 2, !tbaa !97
  %4 = zext i16 %3 to i32
  %5 = ashr i32 %4, 8
  %6 = and i32 %5, 255
  %7 = load i16, ptr %2, align 2, !tbaa !97
  %8 = zext i16 %7 to i32
  %9 = and i32 %8, 255
  %10 = shl i32 %9, 8
  %11 = or i32 %6, %10
  %12 = trunc i32 %11 to i16
  ret i16 %12
}

; Function Attrs: nounwind uwtable
define internal i32 @SetupSocketAndListen(ptr noundef %0, i32 noundef %1, i32 noundef %2) #0 {
  %4 = alloca i32, align 4
  %5 = alloca ptr, align 8
  %6 = alloca i32, align 4
  %7 = alloca i32, align 4
  %8 = alloca %struct.sockaddr_in, align 4
  %9 = alloca i32, align 4
  %10 = alloca i32, align 4
  store ptr %0, ptr %5, align 8, !tbaa !81
  store i32 %1, ptr %6, align 4, !tbaa !8
  store i32 %2, ptr %7, align 4, !tbaa !8
  call void @llvm.lifetime.start.p0(i64 16, ptr %8) #12
  call void @llvm.lifetime.start.p0(i64 4, ptr %9) #12
  store i32 1, ptr %9, align 4, !tbaa !8
  call void @llvm.memset.p0.i64(ptr align 4 %8, i8 0, i64 16, i1 false)
  %11 = getelementptr inbounds nuw %struct.sockaddr_in, ptr %8, i32 0, i32 0
  store i16 2, ptr %11, align 4, !tbaa !83
  %12 = load i32, ptr %6, align 4, !tbaa !8
  %13 = trunc i32 %12 to i16
  %14 = call zeroext i16 @__bswap_16(i16 noundef zeroext %13)
  %15 = getelementptr inbounds nuw %struct.sockaddr_in, ptr %8, i32 0, i32 1
  store i16 %14, ptr %15, align 2, !tbaa !86
  %16 = getelementptr inbounds nuw %struct.sockaddr_in, ptr %8, i32 0, i32 2
  %17 = getelementptr inbounds nuw %struct.in_addr, ptr %16, i32 0, i32 0
  store i32 0, ptr %17, align 4, !tbaa !87
  %18 = call i32 @socket(i32 noundef 2, i32 noundef 1, i32 noundef 0) #12
  %19 = load ptr, ptr %5, align 8, !tbaa !81
  store i32 %18, ptr %19, align 4, !tbaa !8
  %20 = icmp eq i32 %18, -1
  br i1 %20, label %21, label %24

21:                                               ; preds = %3
  %22 = load ptr, ptr @stderr, align 8, !tbaa !20
  %23 = call i32 (ptr, ptr, ...) @fprintf(ptr noundef %22, ptr noundef @.str.53) #12
  store i32 -1, ptr %4, align 4
  store i32 1, ptr %10, align 4
  br label %49

24:                                               ; preds = %3
  %25 = load ptr, ptr %5, align 8, !tbaa !81
  %26 = load i32, ptr %25, align 4, !tbaa !8
  %27 = call i32 @setsockopt(i32 noundef %26, i32 noundef 1, i32 noundef 2, ptr noundef %9, i32 noundef 4) #12
  %28 = icmp eq i32 %27, -1
  br i1 %28, label %29, label %32

29:                                               ; preds = %24
  %30 = load ptr, ptr @stderr, align 8, !tbaa !20
  %31 = call i32 (ptr, ptr, ...) @fprintf(ptr noundef %30, ptr noundef @.str.54) #12
  store i32 -1, ptr %4, align 4
  store i32 1, ptr %10, align 4
  br label %49

32:                                               ; preds = %24
  %33 = load ptr, ptr %5, align 8, !tbaa !81
  %34 = load i32, ptr %33, align 4, !tbaa !8
  %35 = call i32 @bind(i32 noundef %34, ptr noundef %8, i32 noundef 16) #12
  %36 = icmp eq i32 %35, -1
  br i1 %36, label %37, label %40

37:                                               ; preds = %32
  %38 = load ptr, ptr @stderr, align 8, !tbaa !20
  %39 = call i32 (ptr, ptr, ...) @fprintf(ptr noundef %38, ptr noundef @.str.55) #12
  store i32 -1, ptr %4, align 4
  store i32 1, ptr %10, align 4
  br label %49

40:                                               ; preds = %32
  %41 = load ptr, ptr %5, align 8, !tbaa !81
  %42 = load i32, ptr %41, align 4, !tbaa !8
  %43 = call i32 @listen(i32 noundef %42, i32 noundef 5) #12
  %44 = icmp ne i32 %43, 0
  br i1 %44, label %45, label %48

45:                                               ; preds = %40
  %46 = load ptr, ptr @stderr, align 8, !tbaa !20
  %47 = call i32 (ptr, ptr, ...) @fprintf(ptr noundef %46, ptr noundef @.str.56) #12
  store i32 -1, ptr %4, align 4
  store i32 1, ptr %10, align 4
  br label %49

48:                                               ; preds = %40
  store i32 0, ptr %4, align 4
  store i32 1, ptr %10, align 4
  br label %49

49:                                               ; preds = %48, %45, %37, %29, %21
  call void @llvm.lifetime.end.p0(i64 4, ptr %9) #12
  call void @llvm.lifetime.end.p0(i64 16, ptr %8) #12
  %50 = load i32, ptr %4, align 4
  ret i32 %50
}