; Function Attrs: nounwind uwtable
define internal fastcc range(i32 -1, 1) i32 @SetupSocketAndListen(ptr noundef captures(none) initializes((0, 4)) %0, i32 noundef %1) unnamed_addr #0 {
  %3 = alloca %struct.sockaddr_in, align 4
  %4 = alloca i32, align 4
  call void @llvm.lifetime.start.p0(i64 16, ptr nonnull %3) #17
  call void @llvm.lifetime.start.p0(i64 4, ptr nonnull %4) #17
  store i32 1, ptr %4, align 4, !tbaa !4
  %5 = getelementptr inbounds nuw i8, ptr %3, i64 8
  store i64 0, ptr %5, align 4
  store i16 2, ptr %3, align 4, !tbaa !71
  %6 = trunc i32 %1 to i16
  %rev.i = tail call noundef i16 @llvm.bswap.i16(i16 %6)
  %7 = getelementptr inbounds nuw i8, ptr %3, i64 2
  store i16 %rev.i, ptr %7, align 2, !tbaa !74
  %8 = getelementptr inbounds nuw i8, ptr %3, i64 4
  store i32 0, ptr %8, align 4, !tbaa !75
  %9 = tail call i32 @socket(i32 noundef 2, i32 noundef 1, i32 noundef 0) #17
  store i32 %9, ptr %0, align 4, !tbaa !4
  %10 = icmp eq i32 %9, -1
  br i1 %10, label %11, label %14

11:                                               ; preds = %2
  %12 = load ptr, ptr @stderr, align 8, !tbaa !19
  %13 = tail call i64 @fwrite(ptr nonnull @.str.53, i64 35, i64 1, ptr %12) #19
  br label %33

14:                                               ; preds = %2
  %15 = call i32 @setsockopt(i32 noundef %9, i32 noundef 1, i32 noundef 2, ptr noundef nonnull %4, i32 noundef 4) #17
  %16 = icmp eq i32 %15, -1
  br i1 %16, label %17, label %20

17:                                               ; preds = %14
  %18 = load ptr, ptr @stderr, align 8, !tbaa !19
  %19 = call i64 @fwrite(ptr nonnull @.str.54, i64 31, i64 1, ptr %18) #19
  br label %33

20:                                               ; preds = %14
  %21 = load i32, ptr %0, align 4, !tbaa !4
  %22 = call i32 @bind(i32 noundef %21, ptr noundef nonnull %3, i32 noundef 16) #17
  %23 = icmp eq i32 %22, -1
  br i1 %23, label %24, label %27

24:                                               ; preds = %20
  %25 = load ptr, ptr @stderr, align 8, !tbaa !19
  %26 = call i64 @fwrite(ptr nonnull @.str.55, i64 22, i64 1, ptr %25) #19
  br label %33

27:                                               ; preds = %20
  %28 = load i32, ptr %0, align 4, !tbaa !4
  %29 = call i32 @listen(i32 noundef %28, i32 noundef 5) #17
  %.not = icmp eq i32 %29, 0
  br i1 %.not, label %33, label %30

30:                                               ; preds = %27
  %31 = load ptr, ptr @stderr, align 8, !tbaa !19
  %32 = call i64 @fwrite(ptr nonnull @.str.56, i64 24, i64 1, ptr %31) #19
  br label %33

33:                                               ; preds = %27, %30, %24, %17, %11
  %.0 = phi i32 [ -1, %11 ], [ -1, %17 ], [ -1, %24 ], [ -1, %30 ], [ 0, %27 ]
  call void @llvm.lifetime.end.p0(i64 4, ptr nonnull %4) #17
  call void @llvm.lifetime.end.p0(i64 16, ptr nonnull %3) #17
  ret i32 %.0
}